; Function Attrs: mustprogress uwtable
define void @_ZNK6casadi15WeakRefInternal4dispERSob(ptr nocapture noundef nonnull readonly align 8 dereferenceable(32) %0, ptr noundef nonnull align 8 dereferenceable(8) %1, i1 noundef zeroext %2) unnamed_addr #11 align 2 {
  %4 = getelementptr inbounds i8, ptr %0, i64 24
  %5 = load ptr, ptr %4, align 8
  %6 = icmp eq ptr %5, null
  br i1 %6, label %7, label %9

7:                                                ; preds = %3
  %8 = tail call noundef nonnull align 8 dereferenceable(8) ptr @_ZStlsISt11char_traitsIcEERSt13basic_ostreamIcT_ES5_PKc(ptr noundef nonnull align 8 dereferenceable(8) %1, ptr noundef nonnull @.str)
  br label %13

9:                                                ; preds = %3
  %10 = load ptr, ptr %5, align 8
  %11 = getelementptr inbounds i8, ptr %10, i64 24
  %12 = load ptr, ptr %11, align 8
  tail call void %12(ptr noundef nonnull align 8 dereferenceable(24) %5, ptr noundef nonnull align 8 dereferenceable(8) %1, i1 noundef zeroext %2)
  br label %13

13:                                               ; preds = %9, %7
  ret void
}